; Function Attrs: nounwind uwtable
define internal void @paramspec_dealloc(ptr noundef %0) #0 {
  %2 = getelementptr i8, ptr %0, i64 8
  %.val15 = load ptr, ptr %2, align 8, !tbaa !18
  %3 = getelementptr i8, ptr %0, i64 -16
  %4 = getelementptr i8, ptr %0, i64 -8
  %.val.i = load i64, ptr %4, align 8, !tbaa !113
  %5 = and i64 %.val.i, -4
  %6 = inttoptr i64 %5 to ptr
  %.val9.i = load i64, ptr %3, align 8, !tbaa !114
  %7 = and i64 %.val9.i, -4
  %8 = inttoptr i64 %7 to ptr
  %9 = load i64, ptr %6, align 8, !tbaa !114
  %10 = and i64 %9, 3
  %11 = or disjoint i64 %10, %7
  store i64 %11, ptr %6, align 8, !tbaa !114
  %12 = getelementptr inbounds nuw i8, ptr %8, i64 8
  %13 = load i64, ptr %12, align 8, !tbaa !113
  %14 = and i64 %13, 3
  %15 = or disjoint i64 %14, %5
  store i64 %15, ptr %12, align 8, !tbaa !113
  store i64 0, ptr %3, align 8, !tbaa !114
  %16 = load i64, ptr %4, align 8, !tbaa !113
  %17 = and i64 %16, 1
  store i64 %17, ptr %4, align 8, !tbaa !113
  %18 = getelementptr inbounds nuw i8, ptr %0, i64 16
  %19 = load ptr, ptr %18, align 8, !tbaa !126
  %20 = load i32, ptr %19, align 8, !tbaa !27
  %.not.i12 = icmp sgt i32 %20, -1
  br i1 %.not.i12, label %21, label %Py_DECREF.exit13

21:                                               ; preds = %1
  %22 = add nsw i32 %20, -1
  store i32 %22, ptr %19, align 8, !tbaa !27
  %23 = icmp eq i32 %22, 0
  br i1 %23, label %24, label %Py_DECREF.exit13

24:                                               ; preds = %21
  tail call void @_Py_Dealloc(ptr noundef nonnull %19) #8
  br label %Py_DECREF.exit13

Py_DECREF.exit13:                                 ; preds = %1, %21, %24
  %25 = getelementptr inbounds nuw i8, ptr %0, i64 24
  %26 = load ptr, ptr %25, align 8, !tbaa !128
  %.not.i16 = icmp eq ptr %26, null
  br i1 %.not.i16, label %Py_XDECREF.exit, label %27

27:                                               ; preds = %Py_DECREF.exit13
  %28 = load i32, ptr %26, align 8, !tbaa !27
  %.not.i.i = icmp sgt i32 %28, -1
  br i1 %.not.i.i, label %29, label %Py_XDECREF.exit

29:                                               ; preds = %27
  %30 = add nsw i32 %28, -1
  store i32 %30, ptr %26, align 8, !tbaa !27
  %31 = icmp eq i32 %30, 0
  br i1 %31, label %32, label %Py_XDECREF.exit

32:                                               ; preds = %29
  tail call void @_Py_Dealloc(ptr noundef nonnull %26) #8
  br label %Py_XDECREF.exit

Py_XDECREF.exit:                                  ; preds = %Py_DECREF.exit13, %27, %29, %32
  %33 = getelementptr inbounds nuw i8, ptr %0, i64 32
  %34 = load ptr, ptr %33, align 8, !tbaa !140
  %.not.i17 = icmp eq ptr %34, null
  br i1 %.not.i17, label %Py_XDECREF.exit19, label %35

35:                                               ; preds = %Py_XDECREF.exit
  %36 = load i32, ptr %34, align 8, !tbaa !27
  %.not.i.i18 = icmp sgt i32 %36, -1
  br i1 %.not.i.i18, label %37, label %Py_XDECREF.exit19

37:                                               ; preds = %35
  %38 = add nsw i32 %36, -1
  store i32 %38, ptr %34, align 8, !tbaa !27
  %39 = icmp eq i32 %38, 0
  br i1 %39, label %40, label %Py_XDECREF.exit19

40:                                               ; preds = %37
  tail call void @_Py_Dealloc(ptr noundef nonnull %34) #8
  br label %Py_XDECREF.exit19

Py_XDECREF.exit19:                                ; preds = %Py_XDECREF.exit, %35, %37, %40
  %41 = getelementptr inbounds nuw i8, ptr %0, i64 40
  %42 = load ptr, ptr %41, align 8, !tbaa !141
  %.not.i20 = icmp eq ptr %42, null
  br i1 %.not.i20, label %Py_XDECREF.exit22, label %43

43:                                               ; preds = %Py_XDECREF.exit19
  %44 = load i32, ptr %42, align 8, !tbaa !27
  %.not.i.i21 = icmp sgt i32 %44, -1
  br i1 %.not.i.i21, label %45, label %Py_XDECREF.exit22

45:                                               ; preds = %43
  %46 = add nsw i32 %44, -1
  store i32 %46, ptr %42, align 8, !tbaa !27
  %47 = icmp eq i32 %46, 0
  br i1 %47, label %48, label %Py_XDECREF.exit22

48:                                               ; preds = %45
  tail call void @_Py_Dealloc(ptr noundef nonnull %42) #8
  br label %Py_XDECREF.exit22

Py_XDECREF.exit22:                                ; preds = %Py_XDECREF.exit19, %43, %45, %48
  tail call void @PyObject_ClearManagedDict(ptr noundef nonnull %0) #8
  tail call void @PyObject_ClearWeakRefs(ptr noundef nonnull %0) #8
  %.val = load ptr, ptr %2, align 8, !tbaa !18
  %49 = getelementptr inbounds nuw i8, ptr %.val, i64 320
  %50 = load ptr, ptr %49, align 8, !tbaa !116
  tail call void %50(ptr noundef nonnull %0) #8
  %51 = load i32, ptr %.val15, align 8, !tbaa !27
  %.not.i = icmp sgt i32 %51, -1
  br i1 %.not.i, label %52, label %Py_DECREF.exit

52:                                               ; preds = %Py_XDECREF.exit22
  %53 = add nsw i32 %51, -1
  store i32 %53, ptr %.val15, align 8, !tbaa !27
  %54 = icmp eq i32 %53, 0
  br i1 %54, label %55, label %Py_DECREF.exit

55:                                               ; preds = %52
  tail call void @_Py_Dealloc(ptr noundef nonnull %.val15) #8
  br label %Py_DECREF.exit

Py_DECREF.exit:                                   ; preds = %Py_XDECREF.exit22, %52, %55
  ret void
}